target datalayout = "e-m:e-p270:32:32-p271:32:32-p272:64:64-i64:64-i128:128-f80:128-n8:16:32:64-S128"
target triple = "x86_64-pc-linux-gnu"

%struct._packet_info = type { ptr, ptr, i32, i32, %struct.nstime_t, %struct.nstime_t, %struct.nstime_t, i8, ptr, ptr, ptr, ptr, %struct._address, %struct._address, %struct._address, %struct._address, %struct._address, %struct._address, i32, ptr, i8, [3 x i8], %struct.anon, i32, i32, i32, i32, ptr, i8, ptr, ptr, i16, i16, i32, i32, i16, i32, i32, ptr, ptr, ptr, i8, i8, i16, i16, i16, i32, i16, i16, ptr, ptr, ptr, ptr, ptr, i32, i32 }
%struct.nstime_t = type { i64, i32 }
%struct._address = type { i32, i32, ptr, ptr }
%struct.anon = type { i8, [3 x i8] }

@hf_dect_transceivermode = internal global i32 0, align 4
@hf_dect_channel = internal global i32 0, align 4
@hf_dect_framenumber = internal global i32 0, align 4
@hf_dect_rssi = internal global i32 0, align 4
@hf_dect_slot = internal global i32 0, align 4
@hf_dect_preamble = internal global i32 0, align 4
@hf_dect_type = internal global i32 0, align 4
@hf_dect_cc = internal global i32 0, align 4
@ett_dect = internal global i32 0, align 4
@ett_afield = internal global i32 0, align 4
@.str.216 = private unnamed_addr constant [5 x i8] c"DECT\00", align 1
@proto_dect = internal global i32 0, align 4
@.str.674 = private unnamed_addr constant [29 x i8] c"Use Custom Columns for Infos\00", align 1
@.str.675 = private unnamed_addr constant [8 x i8] c"No Data\00", align 1
@.str.676 = private unnamed_addr constant [8 x i8] c"DECT PP\00", align 1
@.str.677 = private unnamed_addr constant [14 x i8] c" Phone Packet\00", align 1
@.str.678 = private unnamed_addr constant [9 x i8] c"DECT RFP\00", align 1
@.str.679 = private unnamed_addr constant [16 x i8] c" Station Packet\00", align 1
@.str.680 = private unnamed_addr constant [9 x i8] c"DECT Unk\00", align 1
@.str.681 = private unnamed_addr constant [16 x i8] c" Unknown Packet\00", align 1

; Function Attrs: null_pointer_is_valid sspstrong uwtable
define internal i32 @dissect_dect(ptr noundef %0, ptr noundef %1, ptr noundef %2, ptr noundef %3) #0 {
  %5 = alloca i32, align 4
  %6 = alloca ptr, align 8
  %7 = alloca ptr, align 8
  %8 = alloca ptr, align 8
  %9 = alloca ptr, align 8
  %10 = alloca ptr, align 8
  %11 = alloca ptr, align 8
  %12 = alloca ptr, align 8
  %13 = alloca i32, align 4
  %14 = alloca i16, align 2
  %15 = alloca i32, align 4
  %16 = alloca i8, align 1
  %17 = alloca ptr, align 8
  %18 = alloca ptr, align 8
  %19 = alloca i32, align 4
  store ptr %0, ptr %6, align 8
  store ptr %1, ptr %7, align 8
  store ptr %2, ptr %8, align 8
  store ptr %3, ptr %9, align 8
  call void @llvm.lifetime.start.p0(i64 8, ptr %10) #7
  store ptr null, ptr %10, align 8
  call void @llvm.lifetime.start.p0(i64 8, ptr %11) #7
  store ptr null, ptr %11, align 8
  call void @llvm.lifetime.start.p0(i64 8, ptr %12) #7
  store ptr null, ptr %12, align 8
  call void @llvm.lifetime.start.p0(i64 4, ptr %13) #7
  store i32 0, ptr %13, align 4
  call void @llvm.lifetime.start.p0(i64 2, ptr %14) #7
  call void @llvm.lifetime.start.p0(i64 4, ptr %15) #7
  call void @llvm.lifetime.start.p0(i64 1, ptr %16) #7
  call void @llvm.lifetime.start.p0(i64 8, ptr %17) #7
  call void @llvm.lifetime.start.p0(i64 8, ptr %18) #7
  %20 = load ptr, ptr %7, align 8
  %21 = getelementptr inbounds nuw %struct._packet_info, ptr %20, i32 0, i32 1
  %22 = load ptr, ptr %21, align 8
  call void @col_set_str(ptr noundef %22, i32 noundef 25, ptr noundef @.str.674)
  %23 = load ptr, ptr %7, align 8
  %24 = getelementptr inbounds nuw %struct._packet_info, ptr %23, i32 0, i32 1
  %25 = load ptr, ptr %24, align 8
  call void @col_set_str(ptr noundef %25, i32 noundef 35, ptr noundef @.str.216)
  %26 = load ptr, ptr %6, align 8
  %27 = call i32 @tvb_reported_length(ptr noundef %26)
  store i32 %27, ptr %15, align 4
  %28 = load i32, ptr %15, align 4
  %29 = icmp ule i32 %28, 11
  br i1 %29, label %30, label %36

30:                                               ; preds = %4
  %31 = load ptr, ptr %7, align 8
  %32 = getelementptr inbounds nuw %struct._packet_info, ptr %31, i32 0, i32 1
  %33 = load ptr, ptr %32, align 8
  call void @col_set_str(ptr noundef %33, i32 noundef 25, ptr noundef @.str.675)
  %34 = load ptr, ptr %6, align 8
  %35 = call i32 @tvb_captured_length(ptr noundef %34)
  store i32 %35, ptr %5, align 4
  store i32 1, ptr %19, align 4
  br label %151

36:                                               ; preds = %4
  %37 = load ptr, ptr %8, align 8
  %38 = load i32, ptr @proto_dect, align 4
  %39 = load ptr, ptr %6, align 8
  %40 = call ptr @proto_tree_add_item(ptr noundef %37, i32 noundef %38, ptr noundef %39, i32 noundef 0, i32 noundef -1, i32 noundef 0)
  store ptr %40, ptr %10, align 8
  %41 = load ptr, ptr %10, align 8
  %42 = load i32, ptr @ett_dect, align 4
  %43 = call ptr @proto_item_add_subtree(ptr noundef %41, i32 noundef %42)
  store ptr %43, ptr %12, align 8
  %44 = load ptr, ptr %12, align 8
  %45 = load i32, ptr @hf_dect_transceivermode, align 4
  %46 = load ptr, ptr %6, align 8
  %47 = load i32, ptr %13, align 4
  %48 = call ptr @proto_tree_add_item(ptr noundef %44, i32 noundef %45, ptr noundef %46, i32 noundef %47, i32 noundef 1, i32 noundef 0)
  %49 = load i32, ptr %13, align 4
  %50 = add i32 %49, 1
  store i32 %50, ptr %13, align 4
  %51 = load ptr, ptr %12, align 8
  %52 = load i32, ptr @hf_dect_channel, align 4
  %53 = load ptr, ptr %6, align 8
  %54 = load i32, ptr %13, align 4
  %55 = call ptr @proto_tree_add_item(ptr noundef %51, i32 noundef %52, ptr noundef %53, i32 noundef %54, i32 noundef 1, i32 noundef 0)
  %56 = load i32, ptr %13, align 4
  %57 = add i32 %56, 1
  store i32 %57, ptr %13, align 4
  %58 = load ptr, ptr %12, align 8
  %59 = load i32, ptr @hf_dect_slot, align 4
  %60 = load ptr, ptr %6, align 8
  %61 = load i32, ptr %13, align 4
  %62 = call ptr @proto_tree_add_item(ptr noundef %58, i32 noundef %59, ptr noundef %60, i32 noundef %61, i32 noundef 2, i32 noundef 0)
  %63 = load i32, ptr %13, align 4
  %64 = add i32 %63, 2
  store i32 %64, ptr %13, align 4
  %65 = load ptr, ptr %12, align 8
  %66 = load i32, ptr @hf_dect_framenumber, align 4
  %67 = load ptr, ptr %6, align 8
  %68 = load i32, ptr %13, align 4
  %69 = call ptr @proto_tree_add_item(ptr noundef %65, i32 noundef %66, ptr noundef %67, i32 noundef %68, i32 noundef 1, i32 noundef 0)
  %70 = load i32, ptr %13, align 4
  %71 = add i32 %70, 1
  store i32 %71, ptr %13, align 4
  %72 = load ptr, ptr %12, align 8
  %73 = load i32, ptr @hf_dect_rssi, align 4
  %74 = load ptr, ptr %6, align 8
  %75 = load i32, ptr %13, align 4
  %76 = call ptr @proto_tree_add_item(ptr noundef %72, i32 noundef %73, ptr noundef %74, i32 noundef %75, i32 noundef 1, i32 noundef 0)
  %77 = load i32, ptr %13, align 4
  %78 = add i32 %77, 1
  store i32 %78, ptr %13, align 4
  %79 = load ptr, ptr %12, align 8
  %80 = load i32, ptr @hf_dect_preamble, align 4
  %81 = load ptr, ptr %6, align 8
  %82 = load i32, ptr %13, align 4
  %83 = call ptr @proto_tree_add_item(ptr noundef %79, i32 noundef %80, ptr noundef %81, i32 noundef %82, i32 noundef 3, i32 noundef 0)
  %84 = load i32, ptr %13, align 4
  %85 = add i32 %84, 3
  store i32 %85, ptr %13, align 4
  %86 = load ptr, ptr %12, align 8
  %87 = load i32, ptr @hf_dect_type, align 4
  %88 = load ptr, ptr %6, align 8
  %89 = load i32, ptr %13, align 4
  %90 = call ptr @proto_tree_add_item(ptr noundef %86, i32 noundef %87, ptr noundef %88, i32 noundef %89, i32 noundef 2, i32 noundef 0)
  store ptr %90, ptr %11, align 8
  %91 = load ptr, ptr %6, align 8
  %92 = load i32, ptr %13, align 4
  %93 = call zeroext i16 @tvb_get_ntohs(ptr noundef %91, i32 noundef %92)
  store i16 %93, ptr %14, align 2
  %94 = load i32, ptr %13, align 4
  %95 = add i32 %94, 2
  store i32 %95, ptr %13, align 4
  %96 = load ptr, ptr %12, align 8
  %97 = load i32, ptr @hf_dect_cc, align 4
  %98 = load ptr, ptr %6, align 8
  %99 = call ptr @proto_tree_add_item(ptr noundef %96, i32 noundef %97, ptr noundef %98, i32 noundef 0, i32 noundef 0, i32 noundef 0)
  store ptr %99, ptr %17, align 8
  %100 = load ptr, ptr %17, align 8
  %101 = load i32, ptr @ett_afield, align 4
  %102 = call ptr @proto_item_add_subtree(ptr noundef %100, i32 noundef %101)
  store ptr %102, ptr %18, align 8
  %103 = load i16, ptr %14, align 2
  %104 = zext i16 %103 to i32
  switch i32 %104, label %143 [
    i32 5749, label %105
    i32 59786, label %124
  ]

105:                                              ; preds = %36
  %106 = load ptr, ptr %7, align 8
  %107 = getelementptr inbounds nuw %struct._packet_info, ptr %106, i32 0, i32 1
  %108 = load ptr, ptr %107, align 8
  call void @col_set_str(ptr noundef %108, i32 noundef 35, ptr noundef @.str.676)
  %109 = load ptr, ptr %11, align 8
  call void (ptr, ptr, ...) @proto_item_append_text(ptr noundef %109, ptr noundef @.str.677)
  %110 = load ptr, ptr %7, align 8
  %111 = load ptr, ptr %6, align 8
  %112 = load i32, ptr %13, align 4
  %113 = load ptr, ptr %12, align 8
  %114 = load ptr, ptr %18, align 8
  call void @dissect_afield(i1 noundef zeroext false, ptr noundef %16, ptr noundef %110, ptr noundef %111, i32 noundef %112, ptr noundef %113, ptr noundef %114)
  %115 = load i32, ptr %13, align 4
  %116 = add i32 %115, 8
  store i32 %116, ptr %13, align 4
  %117 = load i8, ptr %16, align 1
  %118 = load ptr, ptr %7, align 8
  %119 = load ptr, ptr %6, align 8
  %120 = load i32, ptr %13, align 4
  %121 = load ptr, ptr %12, align 8
  %122 = load ptr, ptr %18, align 8
  %123 = call i32 @dissect_bfield(i1 noundef zeroext false, i8 noundef zeroext %117, ptr noundef %118, ptr noundef %119, i32 noundef %120, ptr noundef %121, ptr noundef %122)
  br label %148

124:                                              ; preds = %36
  %125 = load ptr, ptr %7, align 8
  %126 = getelementptr inbounds nuw %struct._packet_info, ptr %125, i32 0, i32 1
  %127 = load ptr, ptr %126, align 8
  call void @col_set_str(ptr noundef %127, i32 noundef 35, ptr noundef @.str.678)
  %128 = load ptr, ptr %11, align 8
  call void (ptr, ptr, ...) @proto_item_append_text(ptr noundef %128, ptr noundef @.str.679)
  %129 = load ptr, ptr %7, align 8
  %130 = load ptr, ptr %6, align 8
  %131 = load i32, ptr %13, align 4
  %132 = load ptr, ptr %12, align 8
  %133 = load ptr, ptr %18, align 8
  call void @dissect_afield(i1 noundef zeroext true, ptr noundef %16, ptr noundef %129, ptr noundef %130, i32 noundef %131, ptr noundef %132, ptr noundef %133)
  %134 = load i32, ptr %13, align 4
  %135 = add i32 %134, 8
  store i32 %135, ptr %13, align 4
  %136 = load i8, ptr %16, align 1
  %137 = load ptr, ptr %7, align 8
  %138 = load ptr, ptr %6, align 8
  %139 = load i32, ptr %13, align 4
  %140 = load ptr, ptr %12, align 8
  %141 = load ptr, ptr %18, align 8
  %142 = call i32 @dissect_bfield(i1 noundef zeroext true, i8 noundef zeroext %136, ptr noundef %137, ptr noundef %138, i32 noundef %139, ptr noundef %140, ptr noundef %141)
  br label %148

143:                                              ; preds = %36
  %144 = load ptr, ptr %7, align 8
  %145 = getelementptr inbounds nuw %struct._packet_info, ptr %144, i32 0, i32 1
  %146 = load ptr, ptr %145, align 8
  call void @col_set_str(ptr noundef %146, i32 noundef 35, ptr noundef @.str.680)
  %147 = load ptr, ptr %11, align 8
  call void (ptr, ptr, ...) @proto_item_append_text(ptr noundef %147, ptr noundef @.str.681)
  br label %148

148:                                              ; preds = %143, %124, %105
  %149 = load ptr, ptr %6, align 8
  %150 = call i32 @tvb_captured_length(ptr noundef %149)
  store i32 %150, ptr %5, align 4
  store i32 1, ptr %19, align 4
  br label %151

151:                                              ; preds = %148, %30
  call void @llvm.lifetime.end.p0(i64 8, ptr %18) #7
  call void @llvm.lifetime.end.p0(i64 8, ptr %17) #7
  call void @llvm.lifetime.end.p0(i64 1, ptr %16) #7
  call void @llvm.lifetime.end.p0(i64 4, ptr %15) #7
  call void @llvm.lifetime.end.p0(i64 2, ptr %14) #7
  call void @llvm.lifetime.end.p0(i64 4, ptr %13) #7
  call void @llvm.lifetime.end.p0(i64 8, ptr %12) #7
  call void @llvm.lifetime.end.p0(i64 8, ptr %11) #7
  call void @llvm.lifetime.end.p0(i64 8, ptr %10) #7
  %152 = load i32, ptr %5, align 4
  ret i32 %152
}