; Function Attrs: null_pointer_is_valid sspstrong uwtable
define internal i32 @dissect_dect(ptr noundef %0, ptr noundef readonly captures(none) %1, ptr noundef %2, ptr readnone captures(none) %3) #0 {
  %5 = alloca i8, align 1
  call void @llvm.lifetime.start.p0(i64 1, ptr nonnull %5) #6
  %6 = getelementptr inbounds nuw i8, ptr %1, i64 8
  %7 = load ptr, ptr %6, align 8
  tail call void @col_set_str(ptr noundef %7, i32 noundef 25, ptr noundef nonnull @.str.674)
  %8 = load ptr, ptr %6, align 8
  tail call void @col_set_str(ptr noundef %8, i32 noundef 35, ptr noundef nonnull @.str.216)
  %9 = tail call i32 @tvb_reported_length(ptr noundef %0)
  %10 = icmp ult i32 %9, 12
  br i1 %10, label %11, label %13

11:                                               ; preds = %4
  %12 = load ptr, ptr %6, align 8
  tail call void @col_set_str(ptr noundef %12, i32 noundef 25, ptr noundef nonnull @.str.675)
  br label %43

13:                                               ; preds = %4
  %14 = load i32, ptr @proto_dect, align 4
  %15 = tail call ptr @proto_tree_add_item(ptr noundef %2, i32 noundef %14, ptr noundef %0, i32 noundef 0, i32 noundef -1, i32 noundef 0)
  %16 = load i32, ptr @ett_dect, align 4
  %17 = tail call ptr @proto_item_add_subtree(ptr noundef %15, i32 noundef %16)
  %18 = load i32, ptr @hf_dect_transceivermode, align 4
  %19 = tail call ptr @proto_tree_add_item(ptr noundef %17, i32 noundef %18, ptr noundef %0, i32 noundef 0, i32 noundef 1, i32 noundef 0)
  %20 = load i32, ptr @hf_dect_channel, align 4
  %21 = tail call ptr @proto_tree_add_item(ptr noundef %17, i32 noundef %20, ptr noundef %0, i32 noundef 1, i32 noundef 1, i32 noundef 0)
  %22 = load i32, ptr @hf_dect_slot, align 4
  %23 = tail call ptr @proto_tree_add_item(ptr noundef %17, i32 noundef %22, ptr noundef %0, i32 noundef 2, i32 noundef 2, i32 noundef 0)
  %24 = load i32, ptr @hf_dect_framenumber, align 4
  %25 = tail call ptr @proto_tree_add_item(ptr noundef %17, i32 noundef %24, ptr noundef %0, i32 noundef 4, i32 noundef 1, i32 noundef 0)
  %26 = load i32, ptr @hf_dect_rssi, align 4
  %27 = tail call ptr @proto_tree_add_item(ptr noundef %17, i32 noundef %26, ptr noundef %0, i32 noundef 5, i32 noundef 1, i32 noundef 0)
  %28 = load i32, ptr @hf_dect_preamble, align 4
  %29 = tail call ptr @proto_tree_add_item(ptr noundef %17, i32 noundef %28, ptr noundef %0, i32 noundef 6, i32 noundef 3, i32 noundef 0)
  %30 = load i32, ptr @hf_dect_type, align 4
  %31 = tail call ptr @proto_tree_add_item(ptr noundef %17, i32 noundef %30, ptr noundef %0, i32 noundef 9, i32 noundef 2, i32 noundef 0)
  %32 = tail call zeroext i16 @tvb_get_ntohs(ptr noundef %0, i32 noundef 9)
  %33 = load i32, ptr @hf_dect_cc, align 4
  %34 = tail call ptr @proto_tree_add_item(ptr noundef %17, i32 noundef %33, ptr noundef %0, i32 noundef 0, i32 noundef 0, i32 noundef 0)
  %35 = load i32, ptr @ett_afield, align 4
  %36 = tail call ptr @proto_item_add_subtree(ptr noundef %34, i32 noundef %35)
  %37 = load ptr, ptr %6, align 8
  switch i16 %32, label %42 [
    i16 5749, label %38
    i16 -5750, label %40
  ]

38:                                               ; preds = %13
  tail call void @col_set_str(ptr noundef %37, i32 noundef 35, ptr noundef nonnull @.str.676)
  tail call void (ptr, ptr, ...) @proto_item_append_text(ptr noundef %31, ptr noundef nonnull @.str.677)
  call fastcc void @dissect_afield(i1 noundef zeroext false, ptr noundef nonnull %5, ptr noundef %1, ptr noundef %0, ptr noundef %17, ptr noundef %36)
  %39 = load i8, ptr %5, align 1
  tail call fastcc void @dissect_bfield(i8 noundef zeroext %39, ptr noundef %1, ptr noundef %0, ptr noundef %17, ptr noundef %36)
  br label %43

40:                                               ; preds = %13
  tail call void @col_set_str(ptr noundef %37, i32 noundef 35, ptr noundef nonnull @.str.678)
  tail call void (ptr, ptr, ...) @proto_item_append_text(ptr noundef %31, ptr noundef nonnull @.str.679)
  call fastcc void @dissect_afield(i1 noundef zeroext true, ptr noundef nonnull %5, ptr noundef %1, ptr noundef %0, ptr noundef %17, ptr noundef %36)
  %41 = load i8, ptr %5, align 1
  tail call fastcc void @dissect_bfield(i8 noundef zeroext %41, ptr noundef %1, ptr noundef %0, ptr noundef %17, ptr noundef %36)
  br label %43

42:                                               ; preds = %13
  tail call void @col_set_str(ptr noundef %37, i32 noundef 35, ptr noundef nonnull @.str.680)
  tail call void (ptr, ptr, ...) @proto_item_append_text(ptr noundef %31, ptr noundef nonnull @.str.681)
  br label %43

43:                                               ; preds = %38, %40, %42, %11
  %44 = tail call i32 @tvb_captured_length(ptr noundef %0)
  call void @llvm.lifetime.end.p0(i64 1, ptr nonnull %5) #6
  ret i32 %44
}